; Function Attrs: nofree norecurse nosync nounwind memory(argmem: write) uwtable
define void @lv_cache_entry_set_cache(ptr noundef writeonly captures(address_is_null) %0, ptr noundef %1) local_unnamed_addr #0 {
  %.not = icmp eq ptr %0, null
  br i1 %.not, label %.preheader, label %3

.preheader:                                       ; preds = %2, %.preheader
  br label %.preheader

3:                                                ; preds = %2
  store ptr %1, ptr %0, align 8, !tbaa !15
  ret void
}